; Function Attrs: nounwind uwtable
define internal void @_init_poly(ptr noundef %0, ptr nocapture readnone %1) #0 {
  %3 = getelementptr inbounds nuw i8, ptr %0, i64 464
  tail call void @lv_matrix_identity(ptr noundef nonnull %3) #9
  %4 = tail call ptr @lv_vector_path_create(i32 noundef 0) #9
  %5 = getelementptr inbounds nuw i8, ptr %0, i64 576
  store ptr %4, ptr %5, align 8, !tbaa !186
  %6 = getelementptr inbounds nuw i8, ptr %0, i64 584
  tail call void @lv_area_set(ptr noundef nonnull %6, i32 noundef 0, i32 noundef 0, i32 noundef 0, i32 noundef 0) #9
  ret void
}